Certificate:
    Data:
        Version: 3 (0x2)
        Serial Number: 2 (0x2)
        Signature Algorithm: sha256WithRSAEncryption
        Issuer: DC=com, DC=example, O=Example Com Inc., OU=Example Com Inc. Root CA, CN=Example Com Inc. Root CA
        Validity
            Not Before: Jul 12 13:43:56 2017 GMT
            Not After : Jul 12 13:43:56 2027 GMT
        Subject: DC=com, DC=example, O=Example Com Inc., OU=Example Com Inc. Signing CA, CN=Example Com Inc. Signing CA
        Subject Public Key Info:
            Public Key Algorithm: rsaEncryption
            RSA Public Key: (2048 bit)
                Modulus (2048 bit):
                    00:cf:2b:3b:52:08:56:35:7b:f9:77:8d:55:86:5b:
                    ea:8a:5e:62:25:8c:dd:30:56:f7:4c:cb:e1:02:52:
                    dc:e7:4a:10:b8:3a:04:00:cd:09:35:4b:61:7d:d1:
                    a4:11:33:d9:69:e3:80:b2:d2:d0:c8:cc:51:91:c9:
                    d0:72:e5:fa:b7:2b:86:fd:9e:3e:3e:32:e1:c7:ca:
                    50:42:15:cd:6e:9e:c3:18:0a:c9:7b:0c:ed:e2:40:
                    a1:5a:4c:94:3d:41:9c:66:fa:21:b8:ef:4e:fe:ce:
                    a8:ec:39:b6:bc:ac:3f:c5:25:ef:18:d2:93:6d:c6:
                    58:49:92:25:87:2b:9b:64:94:7e:37:01:0d:80:70:
                    b3:86:94:1b:09:5f:61:ea:71:0c:07:d7:7d:8d:68:
                    a2:3c:8e:5d:f8:34:52:98:80:f8:73:d8:ec:a0:42:
                    cf:0a:1b:d5:d3:4b:98:bc:5d:26:1f:04:f6:1a:ea:
                    de:24:1f:87:9d:e9:d4:e0:b6:4b:b7:71:b0:23:84:
                    45:c1:0b:ab:cc:55:0a:01:b9:fa:1d:c4:81:df:fd:
                    5f:61:35:4d:e0:b0:aa:a5:e5:5c:aa:87:c0:c7:e8:
                    c3:03:ed:22:c6:32:a0:96:67:00:6f:03:53:1c:a3:
                    0a:81:e7:ad:f0:cb:0e:c0:2b:ce:74:01:a4:e3:ee:
                    63:65
                Exponent: 65537 (0x10001)
        X509v3 extensions:
            X509v3 Key Usage: critical
                Certificate Sign, CRL Sign
            X509v3 Basic Constraints: critical
                CA:TRUE, pathlen:0
            X509v3 Subject Key Identifier: 
                72:6A:A0:52:A3:CE:98:89:6A:5A:33:AD:34:F0:EF:25:4F:66:C2:9A
            X509v3 Authority Key Identifier: 
                keyid:EB:F3:F0:CE:F5:32:60:3A:EB:3C:49:C4:8B:A2:8C:3B:3A:75:8B:FB

    Signature Algorithm: sha256WithRSAEncryption
        04:5e:64:85:b7:95:bb:dc:02:62:43:d6:54:fe:b3:a1:93:dc:
        27:95:77:a4:ec:3a:05:49:f1:75:c6:25:68:a0:15:81:8f:14:
        d4:ec:55:5a:14:8c:0c:a0:36:77:c8:03:64:93:96:48:11:9a:
        68:16:bc:4d:99:9f:70:da:57:e4:d9:b8:c8:db:a5:cf:9e:b3:
        fe:b7:af:67:27:7f:7a:98:ed:53:d3:b3:72:5b:e5:2c:3a:cf:
        ed:ab:83:d3:57:26:67:d4:64:b7:84:c2:31:6b:64:3b:7a:94:
        00:3c:04:df:dc:d0:b1:aa:4f:04:cf:d7:be:b4:02:71:90:5a:
        00:df:0b:fe:83:60:69:c9:e3:83:48:bd:81:4d:06:60:70:33:
        8c:cb:40:f3:a3:53:78:0c:7c:a0:4a:64:52:d5:1b:fd:9a:ac:
        d1:ca:f7:c7:b5:2a:a0:46:28:5a:eb:41:b1:f1:02:1e:44:32:
        ae:61:2d:6e:61:87:3b:85:ac:a6:5b:a8:01:11:3b:0b:41:57:
        04:06:87:8a:39:e9:6b:89:82:d5:d0:eb:65:b0:b8:17:4d:cc:
        df:57:e3:3c:88:fe:b2:1d:40:40:a7:01:66:40:98:a1:22:61:
        27:78:f6:60:7f:32:88:3c:bb:74:31:47:e0:13:46:5d:2b:17:
        6a:b5:74:dd
-----BEGIN CERTIFICATE-----
MIIEBzCCAu+gAwIBAgIBAjANBgkqhkiG9w0BAQsFADCBjzETMBEGCgmSJomT8ixk
ARkWA2NvbTEXMBUGCgmSJomT8ixkARkWB2V4YW1wbGUxGTAXBgNVBAoMEEV4YW1w
bGUgQ29tIEluYy4xITAfBgNVBAsMGEV4YW1wbGUgQ29tIEluYy4gUm9vdCBDQTEh
MB8GA1UEAwwYRXhhbXBsZSBDb20gSW5jLiBSb290IENBMB4XDTE3MDcxMjEzNDM1
NloXDTI3MDcxMjEzNDM1NlowgZUxEzARBgoJkiaJk/IsZAEZFgNjb20xFzAVBgoJ
kiaJk/IsZAEZFgdleGFtcGxlMRkwFwYDVQQKDBBFeGFtcGxlIENvbSBJbmMuMSQw
IgYDVQQLDBtFeGFtcGxlIENvbSBJbmMuIFNpZ25pbmcgQ0ExJDAiBgNVBAMMG0V4
YW1wbGUgQ29tIEluYy4gU2lnbmluZyBDQTCCASIwDQYJKoZIhvcNAQEBBQADggEP
ADCCAQoCggEBAM8rO1IIVjV7+XeNVYZb6opeYiWM3TBW90zL4QJS3OdKELg6BADN
CTVLYX3RpBEz2WnjgLLS0MjMUZHJ0HLl+rcrhv2ePj4y4cfKUEIVzW6ewxgKyXsM
7eJAoVpMlD1BnGb6IbjvTv7OqOw5trysP8Ul7xjSk23GWEmSJYcrm2SUfjcBDYBw
s4aUGwlfYepxDAfXfY1oojyOXfg0UpiA+HPY7KBCzwob1dNLmLxdJh8E9hrq3iQf
h53p1OC2S7dxsCOERcELq8xVCgG5+h3Egd/9X2E1TeCwqqXlXKqHwMfowwPtIsYy
oJZnAG8DUxyjCoHnrfDLDsArznQBpOPuY2UCAwEAAaNmMGQwDgYDVR0PAQH/BAQD
AgEGMBIGA1UdEwEB/wQIMAYBAf8CAQAwHQYDVR0OBBYEFHJqoFKjzpiJalozrTTw
7yVPZsKaMB8GA1UdIwQYMBaAFOvz8M71MmA66zxJxIuijDs6dYv7MA0GCSqGSIb3
DQEBCwUAA4IBAQAEXmSFt5W73AJiQ9ZU/rOhk9wnlXek7DoFSfF1xiVooBWBjxTU
7FVaFIwMoDZ3yANkk5ZIEZpoFrxNmZ9w2lfk2bjI26XPnrP+t69nJ396mO1T07Ny
W+UsOs/tq4PTVyZn1GS3hMIxa2Q7epQAPATf3NCxqk8Ez9e+tAJxkFoA3wv+g2Bp
yeODSL2BTQZgcDOMy0Dzo1N4DHygSmRS1Rv9mqzRyvfHtSqgRiha60Gx8QIeRDKu
YS1uYYc7haymW6gBETsLQVcEBoeKOelriYLV0OtlsLgXTczfV+M8iP6yHUBApwFm
QJihImEnePZgfzKIPLt0MUfgE0ZdKxdqtXTd
-----END CERTIFICATE-----
